; Function Attrs: nounwind uwtable
define zeroext range(i8 0, 2) i8 @l___private_Lake_Util_Version_0__Lake_decEqStdVer____x40_Lake_Util_Version___hyg_1011_(ptr noundef readonly captures(none) %0, ptr noundef readonly captures(none) %1) local_unnamed_addr #0 {
  %3 = getelementptr inbounds nuw i8, ptr %0, i64 8
  %4 = load ptr, ptr %3, align 8, !tbaa !4
  %5 = getelementptr inbounds nuw i8, ptr %0, i64 16
  %6 = load ptr, ptr %5, align 8, !tbaa !4
  %7 = getelementptr inbounds nuw i8, ptr %1, i64 8
  %8 = load ptr, ptr %7, align 8, !tbaa !4
  %9 = getelementptr inbounds nuw i8, ptr %1, i64 16
  %10 = load ptr, ptr %9, align 8, !tbaa !4
  %11 = getelementptr inbounds nuw i8, ptr %4, i64 8
  %12 = load ptr, ptr %11, align 8, !tbaa !4
  %13 = getelementptr inbounds nuw i8, ptr %4, i64 16
  %14 = load ptr, ptr %13, align 8, !tbaa !4
  %15 = getelementptr inbounds nuw i8, ptr %4, i64 24
  %16 = load ptr, ptr %15, align 8, !tbaa !4
  %17 = getelementptr inbounds nuw i8, ptr %8, i64 8
  %18 = load ptr, ptr %17, align 8, !tbaa !4
  %19 = getelementptr inbounds nuw i8, ptr %8, i64 16
  %20 = load ptr, ptr %19, align 8, !tbaa !4
  %21 = getelementptr inbounds nuw i8, ptr %8, i64 24
  %22 = load ptr, ptr %21, align 8, !tbaa !4
  %23 = ptrtoint ptr %12 to i64
  %24 = and i64 %23, 1
  %25 = icmp ne i64 %24, 0
  %26 = ptrtoint ptr %18 to i64
  %27 = and i64 %26, 1
  %28 = icmp ne i64 %27, 0
  %or.cond.i = select i1 %25, i1 %28, i1 false
  br i1 %or.cond.i, label %29, label %lean_nat_eq.exit.i, !prof !14

29:                                               ; preds = %2
  %30 = icmp eq ptr %12, %18
  br i1 %30, label %32, label %lean_string_dec_eq.exit

lean_nat_eq.exit.i:                               ; preds = %2
  %31 = tail call zeroext i1 @lean_nat_big_eq(ptr noundef %12, ptr noundef %18) #5
  br i1 %31, label %32, label %lean_string_dec_eq.exit

32:                                               ; preds = %lean_nat_eq.exit.i, %29
  %33 = ptrtoint ptr %14 to i64
  %34 = and i64 %33, 1
  %35 = icmp ne i64 %34, 0
  %36 = ptrtoint ptr %20 to i64
  %37 = and i64 %36, 1
  %38 = icmp ne i64 %37, 0
  %or.cond27.i = select i1 %35, i1 %38, i1 false
  br i1 %or.cond27.i, label %39, label %lean_nat_eq.exit19.i, !prof !14

39:                                               ; preds = %32
  %40 = icmp eq ptr %14, %20
  br i1 %40, label %42, label %lean_string_dec_eq.exit

lean_nat_eq.exit19.i:                             ; preds = %32
  %41 = tail call zeroext i1 @lean_nat_big_eq(ptr noundef %14, ptr noundef %20) #5
  br i1 %41, label %42, label %lean_string_dec_eq.exit

42:                                               ; preds = %lean_nat_eq.exit19.i, %39
  %43 = ptrtoint ptr %16 to i64
  %44 = and i64 %43, 1
  %45 = icmp ne i64 %44, 0
  %46 = ptrtoint ptr %22 to i64
  %47 = and i64 %46, 1
  %48 = icmp ne i64 %47, 0
  %or.cond30.i = select i1 %45, i1 %48, i1 false
  br i1 %or.cond30.i, label %49, label %l___private_Lake_Util_Version_0__Lake_decEqSemVerCore____x40_Lake_Util_Version___hyg_126_.exit, !prof !14

49:                                               ; preds = %42
  %50 = icmp eq ptr %16, %22
  br i1 %50, label %52, label %lean_string_dec_eq.exit

l___private_Lake_Util_Version_0__Lake_decEqSemVerCore____x40_Lake_Util_Version___hyg_126_.exit: ; preds = %42
  %51 = tail call zeroext i1 @lean_nat_big_eq(ptr noundef %16, ptr noundef %22) #5
  br i1 %51, label %52, label %lean_string_dec_eq.exit

52:                                               ; preds = %49, %l___private_Lake_Util_Version_0__Lake_decEqSemVerCore____x40_Lake_Util_Version___hyg_126_.exit
  %53 = icmp eq ptr %6, %10
  br i1 %53, label %lean_string_dec_eq.exit, label %54

54:                                               ; preds = %52
  %55 = getelementptr i8, ptr %6, i64 8
  %.val.i.i = load i64, ptr %55, align 8, !tbaa !12
  %56 = getelementptr i8, ptr %10, i64 8
  %.val7.i.i = load i64, ptr %56, align 8, !tbaa !12
  %57 = icmp eq i64 %.val.i.i, %.val7.i.i
  br i1 %57, label %58, label %lean_string_dec_eq.exit

58:                                               ; preds = %54
  %59 = tail call zeroext i1 @lean_string_eq_cold(ptr noundef nonnull %6, ptr noundef nonnull %10) #5
  %60 = zext i1 %59 to i8
  br label %lean_string_dec_eq.exit

lean_string_dec_eq.exit:                          ; preds = %49, %39, %29, %lean_nat_eq.exit19.i, %lean_nat_eq.exit.i, %58, %54, %52, %l___private_Lake_Util_Version_0__Lake_decEqSemVerCore____x40_Lake_Util_Version___hyg_126_.exit
  %.0 = phi i8 [ 0, %l___private_Lake_Util_Version_0__Lake_decEqSemVerCore____x40_Lake_Util_Version___hyg_126_.exit ], [ 1, %52 ], [ 0, %54 ], [ %60, %58 ], [ 0, %lean_nat_eq.exit.i ], [ 0, %lean_nat_eq.exit19.i ], [ 0, %29 ], [ 0, %39 ], [ 0, %49 ]
  ret i8 %.0
}